target datalayout = "e-m:e-p270:32:32-p271:32:32-p272:64:64-i64:64-i128:128-f80:128-n8:16:32:64-S128"
target triple = "x86_64-pc-linux-gnu"

; Function Attrs: nounwind uwtable
define internal i32 @r_random_bytes(ptr noundef %0, i32 noundef %1, ptr noundef %2, i64 noundef %3, i32 noundef %4) #0 {
  %6 = alloca ptr, align 8
  %7 = alloca i32, align 4
  %8 = alloca ptr, align 8
  %9 = alloca i64, align 8
  %10 = alloca i32, align 4
  store ptr %0, ptr %6, align 8, !tbaa !14
  store i32 %1, ptr %7, align 4, !tbaa !9
  store ptr %2, ptr %8, align 8, !tbaa !14
  store i64 %3, ptr %9, align 8, !tbaa !15
  store i32 %4, ptr %10, align 4, !tbaa !9
  br label %11

11:                                               ; preds = %15, %5
  %12 = load i64, ptr %9, align 8, !tbaa !15
  %13 = add i64 %12, -1
  store i64 %13, ptr %9, align 8, !tbaa !15
  %14 = icmp ugt i64 %12, 0
  br i1 %14, label %15, label %22

15:                                               ; preds = %11
  %16 = load i64, ptr %9, align 8, !tbaa !15
  %17 = and i64 255, %16
  %18 = trunc i64 %17 to i8
  %19 = load ptr, ptr %8, align 8, !tbaa !14
  %20 = load i64, ptr %9, align 8, !tbaa !15
  %21 = getelementptr inbounds nuw i8, ptr %19, i64 %20
  store i8 %18, ptr %21, align 1, !tbaa !27
  br label %11, !llvm.loop !43

22:                                               ; preds = %11
  ret i32 1
}