; Function Attrs: nofree norecurse nosync nounwind memory(argmem: write) uwtable
define internal noundef i32 @r_random_bytes(ptr readnone captures(none) %0, i32 %1, ptr noundef writeonly captures(none) %2, i64 noundef %3, i32 %4) #8 {
  %.not3 = icmp eq i64 %3, 0
  br i1 %.not3, label %._crit_edge, label %.lr.ph

.lr.ph:                                           ; preds = %5, %.lr.ph
  %.04 = phi i64 [ %6, %.lr.ph ], [ %3, %5 ]
  %6 = add i64 %.04, -1
  %7 = trunc i64 %6 to i8
  %8 = getelementptr inbounds nuw i8, ptr %2, i64 %6
  store i8 %7, ptr %8, align 1, !tbaa !21
  %.not = icmp eq i64 %6, 0
  br i1 %.not, label %._crit_edge, label %.lr.ph, !llvm.loop !30

._crit_edge:                                      ; preds = %.lr.ph, %5
  ret i32 1
}